; ModuleID = '14/452.c'
source_filename = "14/452.c"
target datalayout = "e-m:e-p270:32:32-p271:32:32-p272:64:64-i64:64-f80:128-n8:16:32:64-S128"
target triple = "x86_64-pc-linux-gnu"

@.str = private unnamed_addr constant [3 x i8] c"%d\00", align 1
@.str.1 = private unnamed_addr constant [7 x i8] c"%d %d\0A\00", align 1

; Function Attrs: noinline nounwind uwtable
define dso_local i32 @main() #0 {
  %1 = alloca i32, align 4
  %2 = alloca i32, align 4
  %3 = alloca i32, align 4
  %4 = alloca i32, align 4
  %5 = alloca i32, align 4
  %6 = alloca i32, align 4
  %7 = alloca i32, align 4
  %8 = alloca [100000 x [3 x i32]], align 16
  store i32 0, i32* %1, align 4
  %9 = call i32 (i8*, ...) @__isoc99_scanf(i8* getelementptr inbounds ([3 x i8], [3 x i8]* @.str, i64 0, i64 0), i32* %2)
  store i32 0, i32* %3, align 4
  br label %10

10:                                               ; preds = %45, %0
  %11 = load i32, i32* %3, align 4
  %12 = load i32, i32* %2, align 4
  %13 = icmp slt i32 %11, %12
  br i1 %13, label %14, label %48

14:                                               ; preds = %10
  store i32 0, i32* %4, align 4
  br label %15

15:                                               ; preds = %26, %14
  %16 = load i32, i32* %4, align 4
  %17 = icmp slt i32 %16, 3
  br i1 %17, label %18, label %29

18:                                               ; preds = %15
  %19 = load i32, i32* %3, align 4
  %20 = sext i32 %19 to i64
  %21 = getelementptr inbounds [100000 x [3 x i32]], [100000 x [3 x i32]]* %8, i64 0, i64 %20
  %22 = load i32, i32* %4, align 4
  %23 = sext i32 %22 to i64
  %24 = getelementptr inbounds [3 x i32], [3 x i32]* %21, i64 0, i64 %23
  %25 = call i32 (i8*, ...) @__isoc99_scanf(i8* getelementptr inbounds ([3 x i8], [3 x i8]* @.str, i64 0, i64 0), i32* %24)
  br label %26

26:                                               ; preds = %18
  %27 = load i32, i32* %4, align 4
  %28 = add nsw i32 %27, 1
  store i32 %28, i32* %4, align 4
  br label %15

29:                                               ; preds = %15
  %30 = load i32, i32* %3, align 4
  %31 = sext i32 %30 to i64
  %32 = getelementptr inbounds [100000 x [3 x i32]], [100000 x [3 x i32]]* %8, i64 0, i64 %31
  %33 = getelementptr inbounds [3 x i32], [3 x i32]* %32, i64 0, i64 1
  %34 = load i32, i32* %33, align 4
  %35 = load i32, i32* %3, align 4
  %36 = sext i32 %35 to i64
  %37 = getelementptr inbounds [100000 x [3 x i32]], [100000 x [3 x i32]]* %8, i64 0, i64 %36
  %38 = getelementptr inbounds [3 x i32], [3 x i32]* %37, i64 0, i64 2
  %39 = load i32, i32* %38, align 4
  %40 = add nsw i32 %34, %39
  %41 = load i32, i32* %3, align 4
  %42 = sext i32 %41 to i64
  %43 = getelementptr inbounds [100000 x [3 x i32]], [100000 x [3 x i32]]* %8, i64 0, i64 %42
  %44 = getelementptr inbounds [3 x i32], [3 x i32]* %43, i64 0, i64 1
  store i32 %40, i32* %44, align 4
  br label %45

45:                                               ; preds = %29
  %46 = load i32, i32* %3, align 4
  %47 = add nsw i32 %46, 1
  store i32 %47, i32* %3, align 4
  br label %10

48:                                               ; preds = %10
  store i32 0, i32* %5, align 4
  br label %49

49:                                               ; preds = %114, %48
  %50 = load i32, i32* %5, align 4
  %51 = icmp slt i32 %50, 3
  br i1 %51, label %52, label %117

52:                                               ; preds = %49
  %53 = load i32, i32* %2, align 4
  %54 = sub nsw i32 %53, 2
  store i32 %54, i32* %6, align 4
  br label %55

55:                                               ; preds = %110, %52
  %56 = load i32, i32* %6, align 4
  %57 = icmp sge i32 %56, 0
  br i1 %57, label %58, label %113

58:                                               ; preds = %55
  %59 = load i32, i32* %6, align 4
  %60 = sext i32 %59 to i64
  %61 = getelementptr inbounds [100000 x [3 x i32]], [100000 x [3 x i32]]* %8, i64 0, i64 %60
  %62 = getelementptr inbounds [3 x i32], [3 x i32]* %61, i64 0, i64 1
  %63 = load i32, i32* %62, align 4
  %64 = load i32, i32* %6, align 4
  %65 = add nsw i32 %64, 1
  %66 = sext i32 %65 to i64
  %67 = getelementptr inbounds [100000 x [3 x i32]], [100000 x [3 x i32]]* %8, i64 0, i64 %66
  %68 = getelementptr inbounds [3 x i32], [3 x i32]* %67, i64 0, i64 1
  %69 = load i32, i32* %68, align 4
  %70 = icmp slt i32 %63, %69
  br i1 %70, label %71, label %109

71:                                               ; preds = %58
  store i32 0, i32* %3, align 4
  br label %72

72:                                               ; preds = %105, %71
  %73 = load i32, i32* %3, align 4
  %74 = icmp slt i32 %73, 2
  br i1 %74, label %75, label %108

75:                                               ; preds = %72
  %76 = load i32, i32* %6, align 4
  %77 = sext i32 %76 to i64
  %78 = getelementptr inbounds [100000 x [3 x i32]], [100000 x [3 x i32]]* %8, i64 0, i64 %77
  %79 = load i32, i32* %3, align 4
  %80 = sext i32 %79 to i64
  %81 = getelementptr inbounds [3 x i32], [3 x i32]* %78, i64 0, i64 %80
  %82 = load i32, i32* %81, align 4
  store i32 %82, i32* %7, align 4
  %83 = load i32, i32* %6, align 4
  %84 = add nsw i32 %83, 1
  %85 = sext i32 %84 to i64
  %86 = getelementptr inbounds [100000 x [3 x i32]], [100000 x [3 x i32]]* %8, i64 0, i64 %85
  %87 = load i32, i32* %3, align 4
  %88 = sext i32 %87 to i64
  %89 = getelementptr inbounds [3 x i32], [3 x i32]* %86, i64 0, i64 %88
  %90 = load i32, i32* %89, align 4
  %91 = load i32, i32* %6, align 4
  %92 = sext i32 %91 to i64
  %93 = getelementptr inbounds [100000 x [3 x i32]], [100000 x [3 x i32]]* %8, i64 0, i64 %92
  %94 = load i32, i32* %3, align 4
  %95 = sext i32 %94 to i64
  %96 = getelementptr inbounds [3 x i32], [3 x i32]* %93, i64 0, i64 %95
  store i32 %90, i32* %96, align 4
  %97 = load i32, i32* %7, align 4
  %98 = load i32, i32* %6, align 4
  %99 = add nsw i32 %98, 1
  %100 = sext i32 %99 to i64
  %101 = getelementptr inbounds [100000 x [3 x i32]], [100000 x [3 x i32]]* %8, i64 0, i64 %100
  %102 = load i32, i32* %3, align 4
  %103 = sext i32 %102 to i64
  %104 = getelementptr inbounds [3 x i32], [3 x i32]* %101, i64 0, i64 %103
  store i32 %97, i32* %104, align 4
  br label %105

105:                                              ; preds = %75
  %106 = load i32, i32* %3, align 4
  %107 = add nsw i32 %106, 1
  store i32 %107, i32* %3, align 4
  br label %72

108:                                              ; preds = %72
  br label %109

109:                                              ; preds = %108, %58
  br label %110

110:                                              ; preds = %109
  %111 = load i32, i32* %6, align 4
  %112 = add nsw i32 %111, -1
  store i32 %112, i32* %6, align 4
  br label %55

113:                                              ; preds = %55
  br label %114

114:                                              ; preds = %113
  %115 = load i32, i32* %5, align 4
  %116 = add nsw i32 %115, 1
  store i32 %116, i32* %5, align 4
  br label %49

117:                                              ; preds = %49
  store i32 0, i32* %3, align 4
  br label %118

118:                                              ; preds = %133, %117
  %119 = load i32, i32* %3, align 4
  %120 = icmp slt i32 %119, 3
  br i1 %120, label %121, label %136

121:                                              ; preds = %118
  %122 = load i32, i32* %3, align 4
  %123 = sext i32 %122 to i64
  %124 = getelementptr inbounds [100000 x [3 x i32]], [100000 x [3 x i32]]* %8, i64 0, i64 %123
  %125 = getelementptr inbounds [3 x i32], [3 x i32]* %124, i64 0, i64 0
  %126 = load i32, i32* %125, align 4
  %127 = load i32, i32* %3, align 4
  %128 = sext i32 %127 to i64
  %129 = getelementptr inbounds [100000 x [3 x i32]], [100000 x [3 x i32]]* %8, i64 0, i64 %128
  %130 = getelementptr inbounds [3 x i32], [3 x i32]* %129, i64 0, i64 1
  %131 = load i32, i32* %130, align 4
  %132 = call i32 (i8*, ...) @printf(i8* getelementptr inbounds ([7 x i8], [7 x i8]* @.str.1, i64 0, i64 0), i32 %126, i32 %131)
  br label %133

133:                                              ; preds = %121
  %134 = load i32, i32* %3, align 4
  %135 = add nsw i32 %134, 1
  store i32 %135, i32* %3, align 4
  br label %118

136:                                              ; preds = %118
  ret i32 0
}

declare dso_local i32 @__isoc99_scanf(i8*, ...) #1

declare dso_local i32 @printf(i8*, ...) #1


!llvm.module.flags = !{!0}
!llvm.ident = !{!1}

!0 = !{i32 1, !"wchar_size", i32 4}
!1 = !{!"clang version 10.0.0-4ubuntu1 "}
